target datalayout = "e-m:e-p270:32:32-p271:32:32-p272:64:64-i64:64-i128:128-f80:128-n8:16:32:64-S128"
target triple = "x86_64-pc-linux-gnu"

%struct.ArgoASFChunkHeader = type { i32, i32, i32, i16, i16, i32 }

; Function Attrs: nounwind uwtable
define void @ff_argo_asf_parse_chunk_header(ptr noundef %0, ptr noundef %1) #0 {
  %3 = alloca ptr, align 8
  %4 = alloca ptr, align 8
  store ptr %0, ptr %3, align 8, !tbaa !22
  store ptr %1, ptr %4, align 8, !tbaa !9
  %5 = load ptr, ptr %4, align 8, !tbaa !9
  %6 = getelementptr inbounds i8, ptr %5, i64 0
  %7 = load i32, ptr %6, align 1, !tbaa !11
  %8 = load ptr, ptr %3, align 8, !tbaa !22
  %9 = getelementptr inbounds nuw %struct.ArgoASFChunkHeader, ptr %8, i32 0, i32 0
  store i32 %7, ptr %9, align 4, !tbaa !24
  %10 = load ptr, ptr %4, align 8, !tbaa !9
  %11 = getelementptr inbounds i8, ptr %10, i64 4
  %12 = load i32, ptr %11, align 1, !tbaa !11
  %13 = load ptr, ptr %3, align 8, !tbaa !22
  %14 = getelementptr inbounds nuw %struct.ArgoASFChunkHeader, ptr %13, i32 0, i32 1
  store i32 %12, ptr %14, align 4, !tbaa !26
  %15 = load ptr, ptr %4, align 8, !tbaa !9
  %16 = getelementptr inbounds i8, ptr %15, i64 8
  %17 = load i32, ptr %16, align 1, !tbaa !11
  %18 = load ptr, ptr %3, align 8, !tbaa !22
  %19 = getelementptr inbounds nuw %struct.ArgoASFChunkHeader, ptr %18, i32 0, i32 2
  store i32 %17, ptr %19, align 4, !tbaa !27
  %20 = load ptr, ptr %4, align 8, !tbaa !9
  %21 = getelementptr inbounds i8, ptr %20, i64 12
  %22 = load i16, ptr %21, align 1, !tbaa !11
  %23 = load ptr, ptr %3, align 8, !tbaa !22
  %24 = getelementptr inbounds nuw %struct.ArgoASFChunkHeader, ptr %23, i32 0, i32 3
  store i16 %22, ptr %24, align 4, !tbaa !28
  %25 = load ptr, ptr %4, align 8, !tbaa !9
  %26 = getelementptr inbounds i8, ptr %25, i64 14
  %27 = load i16, ptr %26, align 1, !tbaa !11
  %28 = load ptr, ptr %3, align 8, !tbaa !22
  %29 = getelementptr inbounds nuw %struct.ArgoASFChunkHeader, ptr %28, i32 0, i32 4
  store i16 %27, ptr %29, align 2, !tbaa !29
  %30 = load ptr, ptr %4, align 8, !tbaa !9
  %31 = getelementptr inbounds i8, ptr %30, i64 16
  %32 = load i32, ptr %31, align 1, !tbaa !11
  %33 = load ptr, ptr %3, align 8, !tbaa !22
  %34 = getelementptr inbounds nuw %struct.ArgoASFChunkHeader, ptr %33, i32 0, i32 5
  store i32 %32, ptr %34, align 4, !tbaa !30
  ret void
}