; Function Attrs: mustprogress nofree norecurse nosync nounwind willreturn memory(argmem: readwrite) uwtable
define void @ff_argo_asf_parse_chunk_header(ptr noundef writeonly captures(none) initializes((0, 20)) %0, ptr noundef readonly captures(none) %1) local_unnamed_addr #0 {
  %3 = load i32, ptr %1, align 1, !tbaa !4
  store i32 %3, ptr %0, align 4, !tbaa !15
  %4 = getelementptr inbounds nuw i8, ptr %1, i64 4
  %5 = load i32, ptr %4, align 1, !tbaa !4
  %6 = getelementptr inbounds nuw i8, ptr %0, i64 4
  store i32 %5, ptr %6, align 4, !tbaa !17
  %7 = getelementptr inbounds nuw i8, ptr %1, i64 8
  %8 = load i32, ptr %7, align 1, !tbaa !4
  %9 = getelementptr inbounds nuw i8, ptr %0, i64 8
  store i32 %8, ptr %9, align 4, !tbaa !18
  %10 = getelementptr inbounds nuw i8, ptr %1, i64 12
  %11 = load i16, ptr %10, align 1, !tbaa !4
  %12 = getelementptr inbounds nuw i8, ptr %0, i64 12
  store i16 %11, ptr %12, align 4, !tbaa !19
  %13 = getelementptr inbounds nuw i8, ptr %1, i64 14
  %14 = load i16, ptr %13, align 1, !tbaa !4
  %15 = getelementptr inbounds nuw i8, ptr %0, i64 14
  store i16 %14, ptr %15, align 2, !tbaa !20
  %16 = getelementptr inbounds nuw i8, ptr %1, i64 16
  %17 = load i32, ptr %16, align 1, !tbaa !4
  %18 = getelementptr inbounds nuw i8, ptr %0, i64 16
  store i32 %17, ptr %18, align 4, !tbaa !21
  ret void
}